; Function Attrs: cold nounwind optsize uwtable
define internal void @uninit(ptr noundef readonly captures(none) %0) #0 {
  %2 = getelementptr inbounds nuw i8, ptr %0, i64 72
  %3 = load ptr, ptr %2, align 8, !tbaa !4
  %4 = getelementptr inbounds nuw i8, ptr %3, i64 40
  tail call void @av_freep(ptr noundef nonnull %4) #9
  %5 = getelementptr inbounds nuw i8, ptr %3, i64 88
  tail call void @av_frame_free(ptr noundef nonnull %5) #9
  %6 = getelementptr inbounds nuw i8, ptr %3, i64 128
  tail call void @av_frame_free(ptr noundef nonnull %6) #9
  %7 = getelementptr inbounds nuw i8, ptr %3, i64 96
  tail call void @av_frame_free(ptr noundef nonnull %7) #9
  %8 = getelementptr inbounds nuw i8, ptr %3, i64 104
  tail call void @av_frame_free(ptr noundef nonnull %8) #9
  %9 = getelementptr inbounds nuw i8, ptr %3, i64 112
  tail call void @av_frame_free(ptr noundef nonnull %9) #9
  %10 = getelementptr inbounds nuw i8, ptr %3, i64 120
  tail call void @av_frame_free(ptr noundef nonnull %10) #9
  %11 = getelementptr inbounds nuw i8, ptr %3, i64 144
  tail call void @av_tx_uninit(ptr noundef nonnull %11) #9
  %12 = getelementptr inbounds nuw i8, ptr %3, i64 152
  tail call void @av_tx_uninit(ptr noundef nonnull %12) #9
  %13 = getelementptr inbounds nuw i8, ptr %3, i64 160
  tail call void @av_tx_uninit(ptr noundef nonnull %13) #9
  ret void
}